target datalayout = "e-m:e-p270:32:32-p271:32:32-p272:64:64-i64:64-i128:128-f80:128-n8:16:32:64-S128"
target triple = "x86_64-pc-linux-gnu"

%struct._zend_compiler_globals = type { %struct._zend_stack, ptr, ptr, i32, ptr, ptr, ptr, ptr, i8, i8, i8, i8, i8, %struct._zend_llist, ptr, i8, i8, i8, i8, ptr, i32, i32, %struct._zend_oparray_context, %struct._zend_file_context, ptr, %struct._zend_array, ptr, i64, i8, i8, i8, ptr, ptr, %struct._zend_stack, ptr, i32, ptr, ptr, i64, i64, ptr, ptr, ptr, ptr, i32, %struct._zend_stack }
%struct._zend_llist = type { ptr, ptr, i64, i64, ptr, i8, ptr }
%struct._zend_oparray_context = type { i32, i32, i32, i32, i32, i32, i32, ptr, ptr, i8 }
%struct._zend_file_context = type { %struct._zend_declarables, ptr, i8, i8, ptr, ptr, ptr, %struct._zend_array }
%struct._zend_declarables = type { i64 }
%struct._zend_array = type { %struct._zend_refcounted_h, %union.anon.4, i32, %union.anon.6, i32, i32, i32, i32, i64, ptr }
%struct._zend_refcounted_h = type { i32, %union.anon }
%union.anon = type { i32 }
%union.anon.4 = type { i32 }
%union.anon.6 = type { ptr }
%struct._zend_stack = type { i32, i32, i32, ptr }
%struct._zend_executor_globals = type { %struct._zval_struct, %struct._zval_struct, [32 x ptr], ptr, ptr, %struct._zend_array, %struct._zend_array, ptr, i32, i32, ptr, ptr, ptr, ptr, ptr, ptr, i64, ptr, ptr, i32, i32, i64, i32, i32, i32, i8, i8, %struct.zend_atomic_bool_s, %struct.zend_atomic_bool_s, ptr, i64, ptr, ptr, %struct._zend_array, %struct._zend_array, i32, i8, %struct._zval_struct, %struct._zval_struct, %struct._zend_stack, %struct._zend_stack, %struct._zend_stack, ptr, i32, i32, i64, ptr, ptr, ptr, %struct._zend_objects_store, ptr, ptr, ptr, [3 x %struct._zend_op], ptr, i8, i8, i64, i32, i32, ptr, [16 x %struct._HashTableIterator], ptr, %union._zend_function, %struct._zend_op, %struct._zend_array, i64, %struct.zend_get_gc_buffer, ptr, ptr, ptr, i64, i8, i32, ptr, ptr, i64, %struct._zend_call_stack, i64, i64, [6 x ptr] }
%struct.zend_atomic_bool_s = type { i8 }
%struct._zval_struct = type { %union._zend_value, %union.anon.0, %union.anon.3 }
%union._zend_value = type { i64 }
%union.anon.0 = type { i32 }
%union.anon.3 = type { i32 }
%struct._zend_objects_store = type { ptr, i32, i32, i32 }
%struct._HashTableIterator = type { ptr, i32, i32 }
%union._zend_function = type { %struct._zend_op_array }
%struct._zend_op_array = type { i8, [3 x i8], i32, ptr, ptr, ptr, i32, i32, ptr, ptr, ptr, ptr, i32, i32, i32, i32, ptr, ptr, ptr, ptr, ptr, i32, i32, ptr, ptr, ptr, i32, i32, i32, i32, ptr, ptr, [6 x ptr] }
%struct._zend_op = type { ptr, %union._znode_op, %union._znode_op, %union._znode_op, i32, i32, i8, i8, i8, i8 }
%union._znode_op = type { i32 }
%struct.zend_get_gc_buffer = type { ptr, ptr, ptr }
%struct._zend_call_stack = type { ptr, i64 }
%struct.__jmp_buf_tag = type { [8 x i64], i32, %struct.__sigset_t }
%struct.__sigset_t = type { [16 x i64] }

@compiler_globals = external global %struct._zend_compiler_globals, align 8
@executor_globals = external global %struct._zend_executor_globals, align 8
@global_map_ptr_last = internal global i64 0, align 8

; Function Attrs: nounwind uwtable
define void @zend_map_ptr_reset() #0 {
  %1 = load i64, ptr @global_map_ptr_last, align 8
  store i64 %1, ptr getelementptr inbounds (%struct._zend_compiler_globals, ptr @compiler_globals, i32 0, i32 39), align 8
  ret void
}

; Function Attrs: nounwind uwtable
define void @zend_deactivate() #0 {
  %1 = alloca ptr, align 8
  %2 = alloca ptr, align 8
  %3 = alloca [1 x %struct.__jmp_buf_tag], align 16
  %4 = alloca ptr, align 8
  %5 = alloca [1 x %struct.__jmp_buf_tag], align 16
  %6 = alloca ptr, align 8
  %7 = alloca [1 x %struct.__jmp_buf_tag], align 16
  store ptr null, ptr getelementptr inbounds (%struct._zend_executor_globals, ptr @executor_globals, i32 0, i32 17), align 8
  %8 = load ptr, ptr getelementptr inbounds (%struct._zend_executor_globals, ptr @executor_globals, i32 0, i32 7), align 8
  store ptr %8, ptr %2, align 8
  store ptr %3, ptr getelementptr inbounds (%struct._zend_executor_globals, ptr @executor_globals, i32 0, i32 7), align 8
  %9 = getelementptr inbounds [1 x %struct.__jmp_buf_tag], ptr %3, i64 0, i64 0
  %10 = call i32 @__sigsetjmp(ptr noundef %9, i32 noundef 0) #21
  %11 = icmp eq i32 %10, 0
  br i1 %11, label %12, label %13

12:                                               ; preds = %0
  call void @shutdown_scanner()
  br label %13

13:                                               ; preds = %12, %0
  %14 = load ptr, ptr %2, align 8
  store ptr %14, ptr getelementptr inbounds (%struct._zend_executor_globals, ptr @executor_globals, i32 0, i32 7), align 8
  call void @shutdown_executor()
  %15 = load ptr, ptr getelementptr inbounds (%struct._zend_executor_globals, ptr @executor_globals, i32 0, i32 7), align 8
  store ptr %15, ptr %4, align 8
  store ptr %5, ptr getelementptr inbounds (%struct._zend_executor_globals, ptr @executor_globals, i32 0, i32 7), align 8
  %16 = getelementptr inbounds [1 x %struct.__jmp_buf_tag], ptr %5, i64 0, i64 0
  %17 = call i32 @__sigsetjmp(ptr noundef %16, i32 noundef 0) #21
  %18 = icmp eq i32 %17, 0
  br i1 %18, label %19, label %20

19:                                               ; preds = %13
  call void @zend_ini_deactivate()
  br label %20

20:                                               ; preds = %19, %13
  %21 = load ptr, ptr %4, align 8
  store ptr %21, ptr getelementptr inbounds (%struct._zend_executor_globals, ptr @executor_globals, i32 0, i32 7), align 8
  %22 = load ptr, ptr getelementptr inbounds (%struct._zend_executor_globals, ptr @executor_globals, i32 0, i32 7), align 8
  store ptr %22, ptr %6, align 8
  store ptr %7, ptr getelementptr inbounds (%struct._zend_executor_globals, ptr @executor_globals, i32 0, i32 7), align 8
  %23 = getelementptr inbounds [1 x %struct.__jmp_buf_tag], ptr %7, i64 0, i64 0
  %24 = call i32 @__sigsetjmp(ptr noundef %23, i32 noundef 0) #21
  %25 = icmp eq i32 %24, 0
  br i1 %25, label %26, label %27

26:                                               ; preds = %20
  call void @shutdown_compiler()
  br label %27

27:                                               ; preds = %26, %20
  %28 = load ptr, ptr %6, align 8
  store ptr %28, ptr getelementptr inbounds (%struct._zend_executor_globals, ptr @executor_globals, i32 0, i32 7), align 8
  call void @zend_destroy_rsrc_list(ptr noundef getelementptr inbounds (%struct._zend_executor_globals, ptr @executor_globals, i32 0, i32 33))
  store ptr getelementptr inbounds (%struct._zend_compiler_globals, ptr @compiler_globals, i32 0, i32 25), ptr %1, align 8
  %29 = load ptr, ptr %1, align 8
  %30 = getelementptr inbounds %struct._zend_array, ptr %29, i32 0, i32 5
  %31 = load i32, ptr %30, align 4
  %32 = icmp ugt i32 %31, 0
  br i1 %32, label %33, label %34

33:                                               ; preds = %27
  call void @zend_map_ptr_reset()
  br label %34

34:                                               ; preds = %33, %27
  ret void
}