; Function Attrs: nounwind uwtable
define void @zend_deactivate() local_unnamed_addr #0 {
  %1 = alloca [1 x %struct.__jmp_buf_tag], align 16
  %2 = alloca [1 x %struct.__jmp_buf_tag], align 16
  %3 = alloca [1 x %struct.__jmp_buf_tag], align 16
  store ptr null, ptr getelementptr inbounds (%struct._zend_executor_globals, ptr @executor_globals, i64 0, i32 17), align 8
  %4 = load ptr, ptr getelementptr inbounds (%struct._zend_executor_globals, ptr @executor_globals, i64 0, i32 7), align 8
  store ptr %1, ptr getelementptr inbounds (%struct._zend_executor_globals, ptr @executor_globals, i64 0, i32 7), align 8
  %5 = call i32 @__sigsetjmp(ptr noundef nonnull %1, i32 noundef 0) #35
  %6 = icmp eq i32 %5, 0
  br i1 %6, label %7, label %8

7:                                                ; preds = %0
  call void @shutdown_scanner() #30
  br label %8

8:                                                ; preds = %7, %0
  store ptr %4, ptr getelementptr inbounds (%struct._zend_executor_globals, ptr @executor_globals, i64 0, i32 7), align 8
  call void @shutdown_executor() #30
  %9 = load ptr, ptr getelementptr inbounds (%struct._zend_executor_globals, ptr @executor_globals, i64 0, i32 7), align 8
  store ptr %2, ptr getelementptr inbounds (%struct._zend_executor_globals, ptr @executor_globals, i64 0, i32 7), align 8
  %10 = call i32 @__sigsetjmp(ptr noundef nonnull %2, i32 noundef 0) #35
  %11 = icmp eq i32 %10, 0
  br i1 %11, label %12, label %13

12:                                               ; preds = %8
  call void @zend_ini_deactivate() #30
  br label %13

13:                                               ; preds = %12, %8
  store ptr %3, ptr getelementptr inbounds (%struct._zend_executor_globals, ptr @executor_globals, i64 0, i32 7), align 8
  %14 = call i32 @__sigsetjmp(ptr noundef nonnull %3, i32 noundef 0) #35
  %15 = icmp eq i32 %14, 0
  br i1 %15, label %16, label %17

16:                                               ; preds = %13
  call void @shutdown_compiler() #30
  br label %17

17:                                               ; preds = %16, %13
  store ptr %9, ptr getelementptr inbounds (%struct._zend_executor_globals, ptr @executor_globals, i64 0, i32 7), align 8
  call void @zend_destroy_rsrc_list(ptr noundef nonnull getelementptr inbounds (%struct._zend_executor_globals, ptr @executor_globals, i64 0, i32 33)) #30
  %18 = load i32, ptr getelementptr inbounds (%struct._zend_compiler_globals, ptr @compiler_globals, i64 0, i32 25, i32 5), align 4
  %.not = icmp eq i32 %18, 0
  br i1 %.not, label %21, label %19

19:                                               ; preds = %17
  %20 = load i64, ptr @global_map_ptr_last, align 8
  store i64 %20, ptr getelementptr inbounds (%struct._zend_compiler_globals, ptr @compiler_globals, i64 0, i32 39), align 8
  br label %21

21:                                               ; preds = %19, %17
  ret void
}